(lp0
(dp1
S'username'
p2
S'yunus'
p3
sS'password'
p4
S'emre'
p5
sa(dp6
S'username'
p7
S'jon'
p8
sS'password'
p9
S'wick'
p10
sa(dp11
S'username'
p12
S'ali'
p13
sS'password'
p14
S'veli'
p15
sa(dp16
S'username'
p17
S'negan'
p18
sS'password'
p19
S'lucy'
p20
sa.